target datalayout = "e-m:e-p270:32:32-p271:32:32-p272:64:64-i64:64-i128:128-f80:128-n8:16:32:64-S128"
target triple = "x86_64-unknown-linux-gnu"

%"class.smt::eq_justification" = type { ptr }
%"class.smt::enode" = type { ptr, ptr, ptr, ptr, i32, i32, i32, i16, i32, i8, i8, %class.ptr_vector, %class.id_var_list, %"struct.smt::trans_justification", %class.approx_set, %class.approx_set, [0 x ptr] }
%class.ptr_vector = type { %class.vector }
%class.vector = type { ptr }
%class.id_var_list = type { i32, ptr }
%"struct.smt::trans_justification" = type { ptr, %"class.smt::eq_justification" }
%class.approx_set = type { %class.approx_set_tpl }
%class.approx_set_tpl = type { i64 }
%class.ast = type { i32, i24, i32, i32 }
%class.chashtable.35 = type { ptr, i32, i32, i32, i32, i32, i32, i32, ptr, ptr, ptr }
%"class.chashtable<smt::enode *, smt::cg_table::cg_unary_hash, smt::cg_table::cg_unary_eq>::iterator" = type { ptr, ptr, ptr }
%"struct.chashtable<smt::enode *, smt::cg_table::cg_unary_hash, smt::cg_table::cg_unary_eq>::cell" = type { ptr, ptr }

@.str.7 = private unnamed_addr constant [2 x i8] c" \00", align 1
@.str.8 = private unnamed_addr constant [2 x i8] c"\0A\00", align 1
@.str.10 = private unnamed_addr constant [4 x i8] c"un \00", align 1

; Function Attrs: mustprogress nounwind uwtable
define linkonce_odr hidden noundef zeroext i1 @_ZNK10chashtableIPN3smt5enodeENS0_8cg_table13cg_unary_hashENS3_11cg_unary_eqEE4cell7is_freeEv(ptr noundef nonnull align 8 dereferenceable(16) %this) #4 comdat align 2 {
entry:
  %this.addr = alloca ptr, align 8
  store ptr %this, ptr %this.addr, align 8
  %this1 = load ptr, ptr %this.addr, align 8
  %m_next = getelementptr inbounds %"struct.chashtable<smt::enode *, smt::cg_table::cg_unary_hash, smt::cg_table::cg_unary_eq>::cell", ptr %this1, i32 0, i32 0
  %0 = load ptr, ptr %m_next, align 8
  %1 = ptrtoint ptr %0 to i64
  %and = and i64 %1, 7
  %cmp = icmp eq i64 %and, 1
  ret i1 %cmp
}

; Function Attrs: mustprogress uwtable
define linkonce_odr hidden void @_ZN10chashtableIPN3smt5enodeENS0_8cg_table13cg_unary_hashENS3_11cg_unary_eqEE8iterator12move_to_usedEv(ptr noundef nonnull align 8 dereferenceable(24) %this) #5 comdat align 2 {
entry:
  %this.addr = alloca ptr, align 8
  store ptr %this, ptr %this.addr, align 8
  %this1 = load ptr, ptr %this.addr, align 8
  br label %while.cond

while.cond:                                       ; preds = %if.end, %entry
  %m_it = getelementptr inbounds %"class.chashtable<smt::enode *, smt::cg_table::cg_unary_hash, smt::cg_table::cg_unary_eq>::iterator", ptr %this1, i32 0, i32 0
  %0 = load ptr, ptr %m_it, align 8
  %m_end = getelementptr inbounds %"class.chashtable<smt::enode *, smt::cg_table::cg_unary_hash, smt::cg_table::cg_unary_eq>::iterator", ptr %this1, i32 0, i32 1
  %1 = load ptr, ptr %m_end, align 8
  %cmp = icmp ne ptr %0, %1
  br i1 %cmp, label %while.body, label %while.end

while.body:                                       ; preds = %while.cond
  %m_it2 = getelementptr inbounds %"class.chashtable<smt::enode *, smt::cg_table::cg_unary_hash, smt::cg_table::cg_unary_eq>::iterator", ptr %this1, i32 0, i32 0
  %2 = load ptr, ptr %m_it2, align 8
  %call = call noundef zeroext i1 @_ZNK10chashtableIPN3smt5enodeENS0_8cg_table13cg_unary_hashENS3_11cg_unary_eqEE4cell7is_freeEv(ptr noundef nonnull align 8 dereferenceable(16) %2)
  br i1 %call, label %if.end, label %if.then

if.then:                                          ; preds = %while.body
  %m_it3 = getelementptr inbounds %"class.chashtable<smt::enode *, smt::cg_table::cg_unary_hash, smt::cg_table::cg_unary_eq>::iterator", ptr %this1, i32 0, i32 0
  %3 = load ptr, ptr %m_it3, align 8
  %m_list_it = getelementptr inbounds %"class.chashtable<smt::enode *, smt::cg_table::cg_unary_hash, smt::cg_table::cg_unary_eq>::iterator", ptr %this1, i32 0, i32 2
  store ptr %3, ptr %m_list_it, align 8
  br label %return

if.end:                                           ; preds = %while.body
  %m_it4 = getelementptr inbounds %"class.chashtable<smt::enode *, smt::cg_table::cg_unary_hash, smt::cg_table::cg_unary_eq>::iterator", ptr %this1, i32 0, i32 0
  %4 = load ptr, ptr %m_it4, align 8
  %incdec.ptr = getelementptr inbounds %"struct.chashtable<smt::enode *, smt::cg_table::cg_unary_hash, smt::cg_table::cg_unary_eq>::cell", ptr %4, i32 1
  store ptr %incdec.ptr, ptr %m_it4, align 8
  br label %while.cond, !llvm.loop !36

while.end:                                        ; preds = %while.cond
  %m_list_it5 = getelementptr inbounds %"class.chashtable<smt::enode *, smt::cg_table::cg_unary_hash, smt::cg_table::cg_unary_eq>::iterator", ptr %this1, i32 0, i32 2
  store ptr null, ptr %m_list_it5, align 8
  br label %return

return:                                           ; preds = %while.end, %if.then
  ret void
}

; Function Attrs: mustprogress nounwind uwtable
define linkonce_odr hidden noundef i32 @_ZNK3ast6get_idEv(ptr noundef nonnull align 4 dereferenceable(16) %this) #4 comdat align 2 {
entry:
  %this.addr = alloca ptr, align 8
  store ptr %this, ptr %this.addr, align 8
  %this1 = load ptr, ptr %this.addr, align 8
  %m_id = getelementptr inbounds %class.ast, ptr %this1, i32 0, i32 0
  %0 = load i32, ptr %m_id, align 4
  ret i32 %0
}

; Function Attrs: mustprogress nounwind uwtable
define linkonce_odr hidden void @_ZN10chashtableIPN3smt5enodeENS0_8cg_table13cg_unary_hashENS3_11cg_unary_eqEE8iteratorC2Ev(ptr noundef nonnull align 8 dereferenceable(24) %this) unnamed_addr #4 comdat align 2 {
entry:
  %this.addr = alloca ptr, align 8
  store ptr %this, ptr %this.addr, align 8
  %this1 = load ptr, ptr %this.addr, align 8
  %m_it = getelementptr inbounds %"class.chashtable<smt::enode *, smt::cg_table::cg_unary_hash, smt::cg_table::cg_unary_eq>::iterator", ptr %this1, i32 0, i32 0
  store ptr null, ptr %m_it, align 8
  %m_end = getelementptr inbounds %"class.chashtable<smt::enode *, smt::cg_table::cg_unary_hash, smt::cg_table::cg_unary_eq>::iterator", ptr %this1, i32 0, i32 1
  store ptr null, ptr %m_end, align 8
  %m_list_it = getelementptr inbounds %"class.chashtable<smt::enode *, smt::cg_table::cg_unary_hash, smt::cg_table::cg_unary_eq>::iterator", ptr %this1, i32 0, i32 2
  store ptr null, ptr %m_list_it, align 8
  ret void
}

; Function Attrs: mustprogress uwtable
define linkonce_odr hidden void @_ZN10chashtableIPN3smt5enodeENS0_8cg_table13cg_unary_hashENS3_11cg_unary_eqEE8iteratorC2EPNS6_4cellES9_(ptr noundef nonnull align 8 dereferenceable(24) %this, ptr noundef %start, ptr noundef %end) unnamed_addr #5 comdat align 2 {
entry:
  %this.addr = alloca ptr, align 8
  %start.addr = alloca ptr, align 8
  %end.addr = alloca ptr, align 8
  store ptr %this, ptr %this.addr, align 8
  store ptr %start, ptr %start.addr, align 8
  store ptr %end, ptr %end.addr, align 8
  %this1 = load ptr, ptr %this.addr, align 8
  %m_it = getelementptr inbounds %"class.chashtable<smt::enode *, smt::cg_table::cg_unary_hash, smt::cg_table::cg_unary_eq>::iterator", ptr %this1, i32 0, i32 0
  %0 = load ptr, ptr %start.addr, align 8
  store ptr %0, ptr %m_it, align 8
  %m_end = getelementptr inbounds %"class.chashtable<smt::enode *, smt::cg_table::cg_unary_hash, smt::cg_table::cg_unary_eq>::iterator", ptr %this1, i32 0, i32 1
  %1 = load ptr, ptr %end.addr, align 8
  store ptr %1, ptr %m_end, align 8
  call void @_ZN10chashtableIPN3smt5enodeENS0_8cg_table13cg_unary_hashENS3_11cg_unary_eqEE8iterator12move_to_usedEv(ptr noundef nonnull align 8 dereferenceable(24) %this1)
  ret void
}

; Function Attrs: mustprogress uwtable
define linkonce_odr hidden noundef nonnull align 8 dereferenceable(24) ptr @_ZN10chashtableIPN3smt5enodeENS0_8cg_table13cg_unary_hashENS3_11cg_unary_eqEE8iteratorppEv(ptr noundef nonnull align 8 dereferenceable(24) %this) #5 comdat align 2 {
entry:
  %this.addr = alloca ptr, align 8
  store ptr %this, ptr %this.addr, align 8
  %this1 = load ptr, ptr %this.addr, align 8
  %m_list_it = getelementptr inbounds %"class.chashtable<smt::enode *, smt::cg_table::cg_unary_hash, smt::cg_table::cg_unary_eq>::iterator", ptr %this1, i32 0, i32 2
  %0 = load ptr, ptr %m_list_it, align 8
  %m_next = getelementptr inbounds %"struct.chashtable<smt::enode *, smt::cg_table::cg_unary_hash, smt::cg_table::cg_unary_eq>::cell", ptr %0, i32 0, i32 0
  %1 = load ptr, ptr %m_next, align 8
  %m_list_it2 = getelementptr inbounds %"class.chashtable<smt::enode *, smt::cg_table::cg_unary_hash, smt::cg_table::cg_unary_eq>::iterator", ptr %this1, i32 0, i32 2
  store ptr %1, ptr %m_list_it2, align 8
  %m_list_it3 = getelementptr inbounds %"class.chashtable<smt::enode *, smt::cg_table::cg_unary_hash, smt::cg_table::cg_unary_eq>::iterator", ptr %this1, i32 0, i32 2
  %2 = load ptr, ptr %m_list_it3, align 8
  %cmp = icmp eq ptr %2, null
  br i1 %cmp, label %if.then, label %if.end

if.then:                                          ; preds = %entry
  %m_it = getelementptr inbounds %"class.chashtable<smt::enode *, smt::cg_table::cg_unary_hash, smt::cg_table::cg_unary_eq>::iterator", ptr %this1, i32 0, i32 0
  %3 = load ptr, ptr %m_it, align 8
  %incdec.ptr = getelementptr inbounds %"struct.chashtable<smt::enode *, smt::cg_table::cg_unary_hash, smt::cg_table::cg_unary_eq>::cell", ptr %3, i32 1
  store ptr %incdec.ptr, ptr %m_it, align 8
  call void @_ZN10chashtableIPN3smt5enodeENS0_8cg_table13cg_unary_hashENS3_11cg_unary_eqEE8iterator12move_to_usedEv(ptr noundef nonnull align 8 dereferenceable(24) %this1)
  br label %if.end

if.end:                                           ; preds = %if.then, %entry
  ret ptr %this1
}

; Function Attrs: mustprogress uwtable
define linkonce_odr hidden noundef i32 @_ZNK3smt5enode12get_owner_idEv(ptr noundef nonnull align 8 dereferenceable(112) %this) #5 comdat align 2 {
entry:
  %this.addr = alloca ptr, align 8
  store ptr %this, ptr %this.addr, align 8
  %this1 = load ptr, ptr %this.addr, align 8
  %m_owner = getelementptr inbounds %"class.smt::enode", ptr %this1, i32 0, i32 0
  %0 = load ptr, ptr %m_owner, align 8
  %call = call noundef i32 @_ZNK3ast6get_idEv(ptr noundef nonnull align 4 dereferenceable(16) %0)
  ret i32 %call
}

; Function Attrs: mustprogress nounwind uwtable
define linkonce_odr hidden noundef nonnull align 8 dereferenceable(8) ptr @_ZN10chashtableIPN3smt5enodeENS0_8cg_table13cg_unary_hashENS3_11cg_unary_eqEE8iteratordeEv(ptr noundef nonnull align 8 dereferenceable(24) %this) #4 comdat align 2 {
entry:
  %this.addr = alloca ptr, align 8
  store ptr %this, ptr %this.addr, align 8
  %this1 = load ptr, ptr %this.addr, align 8
  %m_list_it = getelementptr inbounds %"class.chashtable<smt::enode *, smt::cg_table::cg_unary_hash, smt::cg_table::cg_unary_eq>::iterator", ptr %this1, i32 0, i32 2
  %0 = load ptr, ptr %m_list_it, align 8
  %m_data = getelementptr inbounds %"struct.chashtable<smt::enode *, smt::cg_table::cg_unary_hash, smt::cg_table::cg_unary_eq>::cell", ptr %0, i32 0, i32 1
  ret ptr %m_data
}

; Function Attrs: mustprogress nounwind uwtable
define linkonce_odr hidden noundef zeroext i1 @_ZNK10chashtableIPN3smt5enodeENS0_8cg_table13cg_unary_hashENS3_11cg_unary_eqEE8iteratorneERKS7_(ptr noundef nonnull align 8 dereferenceable(24) %this, ptr noundef nonnull align 8 dereferenceable(24) %it) #4 comdat align 2 {
entry:
  %this.addr = alloca ptr, align 8
  %it.addr = alloca ptr, align 8
  store ptr %this, ptr %this.addr, align 8
  store ptr %it, ptr %it.addr, align 8
  %this1 = load ptr, ptr %this.addr, align 8
  %m_list_it = getelementptr inbounds %"class.chashtable<smt::enode *, smt::cg_table::cg_unary_hash, smt::cg_table::cg_unary_eq>::iterator", ptr %this1, i32 0, i32 2
  %0 = load ptr, ptr %m_list_it, align 8
  %1 = load ptr, ptr %it.addr, align 8
  %m_list_it2 = getelementptr inbounds %"class.chashtable<smt::enode *, smt::cg_table::cg_unary_hash, smt::cg_table::cg_unary_eq>::iterator", ptr %1, i32 0, i32 2
  %2 = load ptr, ptr %m_list_it2, align 8
  %cmp = icmp ne ptr %0, %2
  ret i1 %cmp
}

; Function Attrs: mustprogress uwtable
define linkonce_odr hidden void @_ZNK10chashtableIPN3smt5enodeENS0_8cg_table13cg_unary_hashENS3_11cg_unary_eqEE3endEv(ptr noalias sret(%"class.chashtable<smt::enode *, smt::cg_table::cg_unary_hash, smt::cg_table::cg_unary_eq>::iterator") align 8 %agg.result, ptr noundef nonnull align 8 dereferenceable(64) %this) #5 comdat align 2 {
entry:
  %this.addr = alloca ptr, align 8
  store ptr %this, ptr %this.addr, align 8
  call void @_ZN10chashtableIPN3smt5enodeENS0_8cg_table13cg_unary_hashENS3_11cg_unary_eqEE8iteratorC2Ev(ptr noundef nonnull align 8 dereferenceable(24) %agg.result)
  ret void
}

; Function Attrs: mustprogress uwtable
define linkonce_odr hidden void @_ZNK10chashtableIPN3smt5enodeENS0_8cg_table13cg_unary_hashENS3_11cg_unary_eqEE5beginEv(ptr noalias sret(%"class.chashtable<smt::enode *, smt::cg_table::cg_unary_hash, smt::cg_table::cg_unary_eq>::iterator") align 8 %agg.result, ptr noundef nonnull align 8 dereferenceable(64) %this) #5 comdat align 2 {
entry:
  %this.addr = alloca ptr, align 8
  store ptr %this, ptr %this.addr, align 8
  %this1 = load ptr, ptr %this.addr, align 8
  %m_table = getelementptr inbounds %class.chashtable.35, ptr %this1, i32 0, i32 0
  %0 = load ptr, ptr %m_table, align 8
  %m_table2 = getelementptr inbounds %class.chashtable.35, ptr %this1, i32 0, i32 0
  %1 = load ptr, ptr %m_table2, align 8
  %m_slots = getelementptr inbounds %class.chashtable.35, ptr %this1, i32 0, i32 4
  %2 = load i32, ptr %m_slots, align 4
  %idx.ext = zext i32 %2 to i64
  %add.ptr = getelementptr inbounds %"struct.chashtable<smt::enode *, smt::cg_table::cg_unary_hash, smt::cg_table::cg_unary_eq>::cell", ptr %1, i64 %idx.ext
  call void @_ZN10chashtableIPN3smt5enodeENS0_8cg_table13cg_unary_hashENS3_11cg_unary_eqEE8iteratorC2EPNS6_4cellES9_(ptr noundef nonnull align 8 dereferenceable(24) %agg.result, ptr noundef %0, ptr noundef %add.ptr)
  ret void
}

; Function Attrs: mustprogress uwtable
define hidden void @_ZNK3smt8cg_table13display_unaryERSoPv(ptr noundef nonnull align 8 dereferenceable(48) %this, ptr noundef nonnull align 8 dereferenceable(8) %out, ptr noundef %t) #5 align 2 {
entry:
  %this.addr = alloca ptr, align 8
  %out.addr = alloca ptr, align 8
  %t.addr = alloca ptr, align 8
  %tb = alloca ptr, align 8
  %__range1 = alloca ptr, align 8
  %__begin1 = alloca %"class.chashtable<smt::enode *, smt::cg_table::cg_unary_hash, smt::cg_table::cg_unary_eq>::iterator", align 8
  %__end1 = alloca %"class.chashtable<smt::enode *, smt::cg_table::cg_unary_hash, smt::cg_table::cg_unary_eq>::iterator", align 8
  %n = alloca ptr, align 8
  store ptr %this, ptr %this.addr, align 8
  store ptr %out, ptr %out.addr, align 8
  store ptr %t, ptr %t.addr, align 8
  %0 = load ptr, ptr %t.addr, align 8
  %1 = ptrtoint ptr %0 to i64
  %and = and i64 %1, -8
  %2 = inttoptr i64 %and to ptr
  store ptr %2, ptr %tb, align 8
  %3 = load ptr, ptr %out.addr, align 8
  %call = call noundef nonnull align 8 dereferenceable(8) ptr @_ZStlsISt11char_traitsIcEERSt13basic_ostreamIcT_ES5_PKc(ptr noundef nonnull align 8 dereferenceable(8) %3, ptr noundef @.str.10)
  %4 = load ptr, ptr %tb, align 8
  store ptr %4, ptr %__range1, align 8
  %5 = load ptr, ptr %__range1, align 8
  call void @_ZNK10chashtableIPN3smt5enodeENS0_8cg_table13cg_unary_hashENS3_11cg_unary_eqEE5beginEv(ptr sret(%"class.chashtable<smt::enode *, smt::cg_table::cg_unary_hash, smt::cg_table::cg_unary_eq>::iterator") align 8 %__begin1, ptr noundef nonnull align 8 dereferenceable(64) %5)
  %6 = load ptr, ptr %__range1, align 8
  call void @_ZNK10chashtableIPN3smt5enodeENS0_8cg_table13cg_unary_hashENS3_11cg_unary_eqEE3endEv(ptr sret(%"class.chashtable<smt::enode *, smt::cg_table::cg_unary_hash, smt::cg_table::cg_unary_eq>::iterator") align 8 %__end1, ptr noundef nonnull align 8 dereferenceable(64) %6)
  br label %for.cond

for.cond:                                         ; preds = %for.inc, %entry
  %call2 = call noundef zeroext i1 @_ZNK10chashtableIPN3smt5enodeENS0_8cg_table13cg_unary_hashENS3_11cg_unary_eqEE8iteratorneERKS7_(ptr noundef nonnull align 8 dereferenceable(24) %__begin1, ptr noundef nonnull align 8 dereferenceable(24) %__end1)
  br i1 %call2, label %for.body, label %for.end

for.body:                                         ; preds = %for.cond
  %call3 = call noundef nonnull align 8 dereferenceable(8) ptr @_ZN10chashtableIPN3smt5enodeENS0_8cg_table13cg_unary_hashENS3_11cg_unary_eqEE8iteratordeEv(ptr noundef nonnull align 8 dereferenceable(24) %__begin1)
  %7 = load ptr, ptr %call3, align 8
  store ptr %7, ptr %n, align 8
  %8 = load ptr, ptr %out.addr, align 8
  %9 = load ptr, ptr %n, align 8
  %call4 = call noundef i32 @_ZNK3smt5enode12get_owner_idEv(ptr noundef nonnull align 8 dereferenceable(112) %9)
  %call5 = call noundef nonnull align 8 dereferenceable(8) ptr @_ZNSolsEj(ptr noundef nonnull align 8 dereferenceable(8) %8, i32 noundef %call4)
  %call6 = call noundef nonnull align 8 dereferenceable(8) ptr @_ZStlsISt11char_traitsIcEERSt13basic_ostreamIcT_ES5_PKc(ptr noundef nonnull align 8 dereferenceable(8) %call5, ptr noundef @.str.7)
  br label %for.inc

for.inc:                                          ; preds = %for.body
  %call7 = call noundef nonnull align 8 dereferenceable(24) ptr @_ZN10chashtableIPN3smt5enodeENS0_8cg_table13cg_unary_hashENS3_11cg_unary_eqEE8iteratorppEv(ptr noundef nonnull align 8 dereferenceable(24) %__begin1)
  br label %for.cond

for.end:                                          ; preds = %for.cond
  %10 = load ptr, ptr %out.addr, align 8
  %call8 = call noundef nonnull align 8 dereferenceable(8) ptr @_ZStlsISt11char_traitsIcEERSt13basic_ostreamIcT_ES5_PKc(ptr noundef nonnull align 8 dereferenceable(8) %10, ptr noundef @.str.8)
  ret void
}